; Function Attrs: mustprogress nofree nounwind willreturn memory(read, inaccessiblemem: none) uwtable
define noundef zeroext i1 @_ZNK6icu_7712CollationKeyeqERKS0_(ptr noundef nonnull readonly align 8 dereferenceable(48) %0, ptr noundef nonnull readonly align 8 dereferenceable(48) %1) local_unnamed_addr #11 align 2 {
  %3 = getelementptr inbounds nuw i8, ptr %0, i64 8
  %4 = load i32, ptr %3, align 8, !tbaa !6
  %5 = and i32 %4, 2147483647
  %6 = getelementptr inbounds nuw i8, ptr %1, i64 8
  %7 = load i32, ptr %6, align 8, !tbaa !6
  %8 = and i32 %7, 2147483647
  %9 = icmp eq i32 %5, %8
  br i1 %9, label %10, label %23

10:                                               ; preds = %2
  %11 = icmp eq ptr %0, %1
  br i1 %11, label %23, label %12

12:                                               ; preds = %10
  %13 = getelementptr inbounds nuw i8, ptr %0, i64 16
  %14 = load ptr, ptr %13, align 8
  %15 = icmp slt i32 %4, 0
  %16 = select i1 %15, ptr %14, ptr %13
  %17 = getelementptr inbounds nuw i8, ptr %1, i64 16
  %18 = load ptr, ptr %17, align 8
  %19 = icmp slt i32 %7, 0
  %20 = select i1 %19, ptr %18, ptr %17
  %21 = zext nneg i32 %5 to i64
  %bcmp = tail call i32 @bcmp(ptr %16, ptr %20, i64 %21)
  %22 = icmp eq i32 %bcmp, 0
  br label %23

23:                                               ; preds = %10, %12, %2
  %24 = phi i1 [ false, %2 ], [ true, %10 ], [ %22, %12 ]
  ret i1 %24
}